target datalayout = "e-m:e-p270:32:32-p271:32:32-p272:64:64-i64:64-i128:128-f80:128-n8:16:32:64-S128"
target triple = "x86_64-pc-linux-gnu"

%struct.luaL_Strbuf = type { ptr, ptr, ptr, ptr, [512 x i8] }

@.str.20 = private unnamed_addr constant [14 x i8] c"invalid value\00", align 1

; Function Attrs: mustprogress uwtable
define internal noundef i32 @_ZL8str_charP9lua_State(ptr noundef %0) #2 {
  %2 = alloca ptr, align 8
  %3 = alloca i32, align 4
  %4 = alloca %struct.luaL_Strbuf, align 8
  %5 = alloca ptr, align 8
  %6 = alloca i32, align 4
  %7 = alloca i32, align 4
  store ptr %0, ptr %2, align 8, !tbaa !20
  call void @llvm.lifetime.start.p0(i64 4, ptr %3) #13
  %8 = load ptr, ptr %2, align 8, !tbaa !20
  %9 = call noundef i32 @_Z10lua_gettopP9lua_State(ptr noundef %8)
  store i32 %9, ptr %3, align 4, !tbaa !24
  call void @llvm.lifetime.start.p0(i64 544, ptr %4) #13
  call void @llvm.lifetime.start.p0(i64 8, ptr %5) #13
  %10 = load ptr, ptr %2, align 8, !tbaa !20
  %11 = load i32, ptr %3, align 4, !tbaa !24
  %12 = sext i32 %11 to i64
  %13 = call noundef ptr @_Z17luaL_buffinitsizeP9lua_StateP11luaL_Strbufm(ptr noundef %10, ptr noundef %4, i64 noundef %12)
  store ptr %13, ptr %5, align 8, !tbaa !9
  call void @llvm.lifetime.start.p0(i64 4, ptr %6) #13
  store i32 1, ptr %6, align 4, !tbaa !24
  br label %14

14:                                               ; preds = %38, %1
  %15 = load i32, ptr %6, align 4, !tbaa !24
  %16 = load i32, ptr %3, align 4, !tbaa !24
  %17 = icmp sle i32 %15, %16
  br i1 %17, label %19, label %18

18:                                               ; preds = %14
  call void @llvm.lifetime.end.p0(i64 4, ptr %6) #13
  br label %41

19:                                               ; preds = %14
  call void @llvm.lifetime.start.p0(i64 4, ptr %7) #13
  %20 = load ptr, ptr %2, align 8, !tbaa !20
  %21 = load i32, ptr %6, align 4, !tbaa !24
  %22 = call noundef i32 @_Z17luaL_checkintegerP9lua_Statei(ptr noundef %20, i32 noundef %21)
  store i32 %22, ptr %7, align 4, !tbaa !24
  %23 = load i32, ptr %7, align 4, !tbaa !24
  %24 = trunc i32 %23 to i8
  %25 = zext i8 %24 to i32
  %26 = load i32, ptr %7, align 4, !tbaa !24
  %27 = icmp eq i32 %25, %26
  br i1 %27, label %28, label %29

28:                                               ; preds = %19
  br label %33

29:                                               ; preds = %19
  %30 = load ptr, ptr %2, align 8, !tbaa !20
  %31 = load i32, ptr %6, align 4, !tbaa !24
  call void @_Z14luaL_argerrorLP9lua_StateiPKc(ptr noundef %30, i32 noundef %31, ptr noundef @.str.20) #14
  unreachable

32:                                               ; No predecessors!
  br label %33

33:                                               ; preds = %32, %28
  %34 = load i32, ptr %7, align 4, !tbaa !24
  %35 = trunc i32 %34 to i8
  %36 = load ptr, ptr %5, align 8, !tbaa !9
  %37 = getelementptr inbounds nuw i8, ptr %36, i32 1
  store ptr %37, ptr %5, align 8, !tbaa !9
  store i8 %35, ptr %36, align 1, !tbaa !26
  call void @llvm.lifetime.end.p0(i64 4, ptr %7) #13
  br label %38

38:                                               ; preds = %33
  %39 = load i32, ptr %6, align 4, !tbaa !24
  %40 = add nsw i32 %39, 1
  store i32 %40, ptr %6, align 4, !tbaa !24
  br label %14, !llvm.loop !29

41:                                               ; preds = %18
  %42 = load i32, ptr %3, align 4, !tbaa !24
  %43 = sext i32 %42 to i64
  call void @_Z19luaL_pushresultsizeP11luaL_Strbufm(ptr noundef %4, i64 noundef %43)
  call void @llvm.lifetime.end.p0(i64 8, ptr %5) #13
  call void @llvm.lifetime.end.p0(i64 544, ptr %4) #13
  call void @llvm.lifetime.end.p0(i64 4, ptr %3) #13
  ret i32 1
}