; Function Attrs: mustprogress uwtable
define internal noundef i32 @_ZL8str_charP9lua_State(ptr noundef %0) #0 {
  %2 = alloca %struct.luaL_Strbuf, align 8
  %3 = tail call noundef i32 @_Z10lua_gettopP9lua_State(ptr noundef %0)
  call void @llvm.lifetime.start.p0(i64 544, ptr nonnull %2) #14
  %4 = sext i32 %3 to i64
  %5 = call noundef ptr @_Z17luaL_buffinitsizeP9lua_StateP11luaL_Strbufm(ptr noundef %0, ptr noundef nonnull %2, i64 noundef %4)
  %.not16 = icmp slt i32 %3, 1
  br i1 %.not16, label %._crit_edge, label %.lr.ph

._crit_edge:                                      ; preds = %9, %1
  call void @_Z19luaL_pushresultsizeP11luaL_Strbufm(ptr noundef nonnull %2, i64 noundef %4)
  call void @llvm.lifetime.end.p0(i64 544, ptr nonnull %2) #14
  ret i32 1

.lr.ph:                                           ; preds = %1, %9
  %.018 = phi ptr [ %11, %9 ], [ %5, %1 ]
  %.01417 = phi i32 [ %12, %9 ], [ 1, %1 ]
  %6 = call noundef i32 @_Z17luaL_checkintegerP9lua_Statei(ptr noundef %0, i32 noundef %.01417)
  %7 = icmp ult i32 %6, 256
  br i1 %7, label %9, label %8

8:                                                ; preds = %.lr.ph
  call void @_Z14luaL_argerrorLP9lua_StateiPKc(ptr noundef %0, i32 noundef %.01417, ptr noundef nonnull @.str.20) #15
  unreachable

9:                                                ; preds = %.lr.ph
  %10 = trunc nuw i32 %6 to i8
  %11 = getelementptr inbounds nuw i8, ptr %.018, i64 1
  store i8 %10, ptr %.018, align 1, !tbaa !8
  %12 = add nuw i32 %.01417, 1
  %exitcond.not = icmp eq i32 %.01417, %3
  br i1 %exitcond.not, label %._crit_edge, label %.lr.ph, !llvm.loop !11
}